target datalayout = "e-m:e-p270:32:32-p271:32:32-p272:64:64-i64:64-i128:128-f80:128-n8:16:32:64-S128"
target triple = "x86_64-unknown-linux-gnu"

@_ZL8gcbToHst = internal constant [10 x i32] [i32 0, i32 0, i32 0, i32 0, i32 1, i32 0, i32 4, i32 5, i32 3, i32 2], align 16

; Function Attrs: mustprogress uwtable
define internal noundef i32 @_ZL21getHangulSyllableTypeRK11IntPropertyi9UProperty(ptr noundef nonnull align 8 dereferenceable(32) %0, i32 noundef %c, i32 noundef %1) #0 {
entry:
  %retval = alloca i32, align 4
  %.addr = alloca ptr, align 8
  %c.addr = alloca i32, align 4
  %.addr1 = alloca i32, align 4
  %gcb = alloca i32, align 4
  store ptr %0, ptr %.addr, align 8
  store i32 %c, ptr %c.addr, align 4
  store i32 %1, ptr %.addr1, align 4
  %2 = load i32, ptr %c.addr, align 4
  %call = call i32 @u_getUnicodeProperties_75(i32 noundef %2, i32 noundef 2)
  %and = and i32 %call, 992
  %shr = ashr i32 %and, 5
  store i32 %shr, ptr %gcb, align 4
  %3 = load i32, ptr %gcb, align 4
  %cmp = icmp slt i32 %3, 10
  br i1 %cmp, label %if.then, label %if.else

if.then:                                          ; preds = %entry
  %4 = load i32, ptr %gcb, align 4
  %idxprom = sext i32 %4 to i64
  %arrayidx = getelementptr inbounds [10 x i32], ptr @_ZL8gcbToHst, i64 0, i64 %idxprom
  %5 = load i32, ptr %arrayidx, align 4
  store i32 %5, ptr %retval, align 4
  br label %return

if.else:                                          ; preds = %entry
  store i32 0, ptr %retval, align 4
  br label %return

return:                                           ; preds = %if.else, %if.then
  %6 = load i32, ptr %retval, align 4
  ret i32 %6
}