; Function Attrs: mustprogress uwtable
define internal noundef i32 @_ZL21getHangulSyllableTypeRK11IntPropertyi9UProperty(ptr nocapture nonnull readnone align 8 %0, i32 noundef %c, i32 %1) #0 {
entry:
  %call = tail call i32 @u_getUnicodeProperties_75(i32 noundef %c, i32 noundef 2)
  %and = lshr i32 %call, 5
  %shr = and i32 %and, 31
  %cmp = icmp ult i32 %shr, 10
  br i1 %cmp, label %if.then, label %return

if.then:                                          ; preds = %entry
  %idxprom = zext nneg i32 %shr to i64
  %arrayidx = getelementptr inbounds [10 x i32], ptr @_ZL8gcbToHst, i64 0, i64 %idxprom
  %2 = load i32, ptr %arrayidx, align 4
  br label %return

return:                                           ; preds = %entry, %if.then
  %retval.0 = phi i32 [ %2, %if.then ], [ 0, %entry ]
  ret i32 %retval.0
}